target datalayout = "e-m:e-p270:32:32-p271:32:32-p272:64:64-i64:64-i128:128-f80:128-n8:16:32:64-S128"
target triple = "x86_64-pc-linux-gnu"

%struct._zval_struct = type { %union._zend_value, %union.anon, %union.anon.2 }
%union._zend_value = type { i64 }
%union.anon = type { i32 }
%union.anon.2 = type { i32 }
%struct._zend_refcounted_h = type { i32, %union.anon.3 }
%union.anon.3 = type { i32 }
%struct._xmlNode = type { ptr, i32, ptr, ptr, ptr, ptr, ptr, ptr, ptr, ptr, ptr, ptr, ptr, ptr, i16, i16 }
%struct._php_libxml_node_ptr = type { ptr, i32, ptr }
%struct._zend_object = type { %struct._zend_refcounted_h, i32, ptr, ptr, ptr, [1 x %struct._zval_struct] }
%struct._php_libxml_node_object = type { ptr, ptr, %struct._zend_object }

; Function Attrs: nounwind uwtable
define i32 @php_libxml_decrement_node_ptr(ptr noundef %0) #0 {
  %2 = alloca ptr, align 8
  %3 = alloca i32, align 4
  %4 = alloca ptr, align 8
  store ptr %0, ptr %2, align 8
  store i32 -1, ptr %3, align 4
  %5 = load ptr, ptr %2, align 8
  %6 = icmp ne ptr %5, null
  br i1 %6, label %7, label %37

7:                                                ; preds = %1
  %8 = load ptr, ptr %2, align 8
  %9 = getelementptr inbounds %struct._php_libxml_node_object, ptr %8, i32 0, i32 0
  %10 = load ptr, ptr %9, align 8
  %11 = icmp ne ptr %10, null
  br i1 %11, label %12, label %37

12:                                               ; preds = %7
  %13 = load ptr, ptr %2, align 8
  %14 = getelementptr inbounds %struct._php_libxml_node_object, ptr %13, i32 0, i32 0
  %15 = load ptr, ptr %14, align 8
  store ptr %15, ptr %4, align 8
  %16 = load ptr, ptr %4, align 8
  %17 = getelementptr inbounds %struct._php_libxml_node_ptr, ptr %16, i32 0, i32 1
  %18 = load i32, ptr %17, align 8
  %19 = add nsw i32 %18, -1
  store i32 %19, ptr %17, align 8
  store i32 %19, ptr %3, align 4
  %20 = load i32, ptr %3, align 4
  %21 = icmp eq i32 %20, 0
  br i1 %21, label %22, label %34

22:                                               ; preds = %12
  %23 = load ptr, ptr %4, align 8
  %24 = getelementptr inbounds %struct._php_libxml_node_ptr, ptr %23, i32 0, i32 0
  %25 = load ptr, ptr %24, align 8
  %26 = icmp ne ptr %25, null
  br i1 %26, label %27, label %32

27:                                               ; preds = %22
  %28 = load ptr, ptr %4, align 8
  %29 = getelementptr inbounds %struct._php_libxml_node_ptr, ptr %28, i32 0, i32 0
  %30 = load ptr, ptr %29, align 8
  %31 = getelementptr inbounds %struct._xmlNode, ptr %30, i32 0, i32 0
  store ptr null, ptr %31, align 8
  br label %32

32:                                               ; preds = %27, %22
  %33 = load ptr, ptr %4, align 8
  call void @_efree(ptr noundef %33)
  br label %34

34:                                               ; preds = %32, %12
  %35 = load ptr, ptr %2, align 8
  %36 = getelementptr inbounds %struct._php_libxml_node_object, ptr %35, i32 0, i32 0
  store ptr null, ptr %36, align 8
  br label %37

37:                                               ; preds = %34, %7, %1
  %38 = load i32, ptr %3, align 4
  ret i32 %38
}

; Function Attrs: nounwind uwtable
define void @php_libxml_node_decrement_resource(ptr noundef %0) #0 {
  %2 = alloca ptr, align 8
  %3 = alloca ptr, align 8
  %4 = alloca ptr, align 8
  %5 = alloca i32, align 4
  store ptr %0, ptr %2, align 8
  %6 = load ptr, ptr %2, align 8
  %7 = icmp ne ptr %6, null
  br i1 %7, label %8, label %37

8:                                                ; preds = %1
  %9 = load ptr, ptr %2, align 8
  %10 = getelementptr inbounds %struct._php_libxml_node_object, ptr %9, i32 0, i32 0
  %11 = load ptr, ptr %10, align 8
  %12 = icmp ne ptr %11, null
  br i1 %12, label %13, label %37

13:                                               ; preds = %8
  %14 = load ptr, ptr %2, align 8
  %15 = getelementptr inbounds %struct._php_libxml_node_object, ptr %14, i32 0, i32 0
  %16 = load ptr, ptr %15, align 8
  store ptr %16, ptr %3, align 8
  %17 = load ptr, ptr %3, align 8
  %18 = getelementptr inbounds %struct._php_libxml_node_ptr, ptr %17, i32 0, i32 0
  %19 = load ptr, ptr %18, align 8
  store ptr %19, ptr %4, align 8
  %20 = load ptr, ptr %2, align 8
  %21 = call i32 @php_libxml_decrement_node_ptr(ptr noundef %20)
  store i32 %21, ptr %5, align 4
  %22 = load i32, ptr %5, align 4
  %23 = icmp eq i32 %22, 0
  br i1 %23, label %24, label %26

24:                                               ; preds = %13
  %25 = load ptr, ptr %4, align 8
  call void @php_libxml_node_free_resource(ptr noundef %25)
  br label %36

26:                                               ; preds = %13
  %27 = load ptr, ptr %2, align 8
  %28 = load ptr, ptr %3, align 8
  %29 = getelementptr inbounds %struct._php_libxml_node_ptr, ptr %28, i32 0, i32 2
  %30 = load ptr, ptr %29, align 8
  %31 = icmp eq ptr %27, %30
  br i1 %31, label %32, label %35

32:                                               ; preds = %26
  %33 = load ptr, ptr %3, align 8
  %34 = getelementptr inbounds %struct._php_libxml_node_ptr, ptr %33, i32 0, i32 2
  store ptr null, ptr %34, align 8
  br label %35

35:                                               ; preds = %32, %26
  br label %36

36:                                               ; preds = %35, %24
  br label %37

37:                                               ; preds = %36, %8, %1
  %38 = load ptr, ptr %2, align 8
  %39 = icmp ne ptr %38, null
  br i1 %39, label %40, label %48

40:                                               ; preds = %37
  %41 = load ptr, ptr %2, align 8
  %42 = getelementptr inbounds %struct._php_libxml_node_object, ptr %41, i32 0, i32 1
  %43 = load ptr, ptr %42, align 8
  %44 = icmp ne ptr %43, null
  br i1 %44, label %45, label %48

45:                                               ; preds = %40
  %46 = load ptr, ptr %2, align 8
  %47 = call i32 @php_libxml_decrement_doc_ref(ptr noundef %46)
  br label %48

48:                                               ; preds = %45, %40, %37
  ret void
}