; Function Attrs: nounwind uwtable
define void @php_libxml_node_decrement_resource(ptr noundef %0) local_unnamed_addr #0 {
  %.not = icmp eq ptr %0, null
  br i1 %.not, label %.critedge, label %2

2:                                                ; preds = %1
  %3 = load ptr, ptr %0, align 8
  %.not13 = icmp eq ptr %3, null
  br i1 %.not13, label %18, label %4

4:                                                ; preds = %2
  %5 = load ptr, ptr %3, align 8
  %6 = getelementptr inbounds i8, ptr %3, i64 8
  %7 = load i32, ptr %6, align 8
  %8 = add nsw i32 %7, -1
  store i32 %8, ptr %6, align 8
  %9 = icmp eq i32 %8, 0
  br i1 %9, label %10, label %13

10:                                               ; preds = %4
  %.not13.i = icmp eq ptr %5, null
  br i1 %.not13.i, label %12, label %11

11:                                               ; preds = %10
  store ptr null, ptr %5, align 8
  br label %12

12:                                               ; preds = %10, %11
  tail call void @_efree(ptr noundef nonnull %3) #17
  store ptr null, ptr %0, align 8
  tail call void @php_libxml_node_free_resource(ptr noundef %5)
  br label %18

13:                                               ; preds = %4
  store ptr null, ptr %0, align 8
  %14 = getelementptr inbounds i8, ptr %3, i64 16
  %15 = load ptr, ptr %14, align 8
  %16 = icmp eq ptr %15, %0
  br i1 %16, label %17, label %18

17:                                               ; preds = %13
  store ptr null, ptr %14, align 8
  br label %18

18:                                               ; preds = %2, %13, %17, %12
  %19 = getelementptr inbounds i8, ptr %0, i64 8
  %20 = load ptr, ptr %19, align 8
  %.not14 = icmp eq ptr %20, null
  br i1 %.not14, label %.critedge, label %21

21:                                               ; preds = %18
  %22 = tail call i32 @php_libxml_decrement_doc_ref(ptr noundef nonnull %0)
  br label %.critedge

.critedge:                                        ; preds = %1, %21, %18
  ret void
}